target datalayout = "e-m:e-p270:32:32-p271:32:32-p272:64:64-i64:64-i128:128-f80:128-n8:16:32:64-S128"
target triple = "x86_64-pc-linux-gnu"

%struct.lxb_html_tokenizer = type { ptr, ptr, ptr, ptr, ptr, ptr, ptr, ptr, ptr, ptr, ptr, ptr, ptr, ptr, ptr, i64, ptr, ptr, ptr, ptr, ptr, i64, i64, ptr, ptr, i64, i64, i32, i32, i8, i32, i32, i8, ptr, i64 }
%struct.lxb_html_token_t = type { ptr, ptr, i64, i64, ptr, ptr, ptr, ptr, ptr, i64, i64, i32 }
%struct.lxb_html_token_attr = type { ptr, ptr, ptr, ptr, ptr, ptr, i64, ptr, ptr, i32 }

; Function Attrs: nounwind uwtable
define internal ptr @lxb_html_tokenizer_state_doctype_after_name_public(ptr noundef %0, ptr noundef %1, ptr noundef %2) #0 {
  %4 = alloca ptr, align 8
  %5 = alloca ptr, align 8
  %6 = alloca ptr, align 8
  %7 = alloca ptr, align 8
  %8 = alloca ptr, align 8
  %9 = alloca ptr, align 8
  store ptr %0, ptr %5, align 8
  store ptr %1, ptr %6, align 8
  store ptr %2, ptr %7, align 8
  %10 = load ptr, ptr %5, align 8
  %11 = getelementptr inbounds %struct.lxb_html_tokenizer, ptr %10, i32 0, i32 13
  %12 = load ptr, ptr %11, align 8
  %13 = load ptr, ptr %6, align 8
  %14 = load ptr, ptr %7, align 8
  %15 = load ptr, ptr %6, align 8
  %16 = ptrtoint ptr %14 to i64
  %17 = ptrtoint ptr %15 to i64
  %18 = sub i64 %16, %17
  %19 = call ptr @lexbor_str_data_ncasecmp_first(ptr noundef %12, ptr noundef %13, i64 noundef %18)
  store ptr %19, ptr %8, align 8
  %20 = load ptr, ptr %8, align 8
  %21 = icmp eq ptr %20, null
  br i1 %21, label %22, label %42

22:                                               ; preds = %3
  %23 = load ptr, ptr %5, align 8
  %24 = getelementptr inbounds %struct.lxb_html_tokenizer, ptr %23, i32 0, i32 8
  %25 = load ptr, ptr %24, align 8
  %26 = load ptr, ptr %5, align 8
  %27 = getelementptr inbounds %struct.lxb_html_tokenizer, ptr %26, i32 0, i32 8
  %28 = load ptr, ptr %27, align 8
  %29 = getelementptr inbounds %struct.lxb_html_token_t, ptr %28, i32 0, i32 7
  %30 = load ptr, ptr %29, align 8
  %31 = load ptr, ptr %5, align 8
  %32 = getelementptr inbounds %struct.lxb_html_tokenizer, ptr %31, i32 0, i32 10
  %33 = load ptr, ptr %32, align 8
  call void @lxb_html_token_attr_delete(ptr noundef %25, ptr noundef %30, ptr noundef %33)
  %34 = load ptr, ptr %5, align 8
  %35 = getelementptr inbounds %struct.lxb_html_tokenizer, ptr %34, i32 0, i32 11
  %36 = load ptr, ptr %35, align 8
  %37 = load ptr, ptr %6, align 8
  %38 = call ptr @lxb_html_tokenizer_error_add(ptr noundef %36, ptr noundef %37, i32 noundef 19)
  %39 = load ptr, ptr %5, align 8
  %40 = getelementptr inbounds %struct.lxb_html_tokenizer, ptr %39, i32 0, i32 0
  store ptr @lxb_html_tokenizer_state_doctype_bogus, ptr %40, align 8
  %41 = load ptr, ptr %6, align 8
  store ptr %41, ptr %4, align 8
  br label %91

42:                                               ; preds = %3
  %43 = load ptr, ptr %8, align 8
  %44 = load i8, ptr %43, align 1
  %45 = zext i8 %44 to i32
  %46 = icmp eq i32 %45, 0
  br i1 %46, label %47, label %86

47:                                               ; preds = %42
  %48 = load ptr, ptr %6, align 8
  %49 = load ptr, ptr %8, align 8
  %50 = load ptr, ptr %5, align 8
  %51 = getelementptr inbounds %struct.lxb_html_tokenizer, ptr %50, i32 0, i32 13
  %52 = load ptr, ptr %51, align 8
  %53 = ptrtoint ptr %49 to i64
  %54 = ptrtoint ptr %52 to i64
  %55 = sub i64 %53, %54
  %56 = getelementptr inbounds i8, ptr %48, i64 %55
  store ptr %56, ptr %8, align 8
  %57 = load ptr, ptr %8, align 8
  %58 = load ptr, ptr %5, align 8
  %59 = getelementptr inbounds %struct.lxb_html_tokenizer, ptr %58, i32 0, i32 8
  %60 = load ptr, ptr %59, align 8
  %61 = getelementptr inbounds %struct.lxb_html_token_t, ptr %60, i32 0, i32 7
  %62 = load ptr, ptr %61, align 8
  %63 = getelementptr inbounds %struct.lxb_html_token_attr, ptr %62, i32 0, i32 1
  store ptr %57, ptr %63, align 8
  %64 = load ptr, ptr %5, align 8
  %65 = getelementptr inbounds %struct.lxb_html_tokenizer, ptr %64, i32 0, i32 5
  %66 = load ptr, ptr %65, align 8
  %67 = call ptr @lxb_dom_attr_data_by_id(ptr noundef %66, i64 noundef 23)
  store ptr %67, ptr %9, align 8
  %68 = load ptr, ptr %9, align 8
  %69 = icmp eq ptr %68, null
  br i1 %69, label %70, label %74

70:                                               ; preds = %47
  %71 = load ptr, ptr %5, align 8
  %72 = getelementptr inbounds %struct.lxb_html_tokenizer, ptr %71, i32 0, i32 31
  store i32 1, ptr %72, align 8
  %73 = load ptr, ptr %7, align 8
  store ptr %73, ptr %4, align 8
  br label %91

74:                                               ; preds = %47
  %75 = load ptr, ptr %9, align 8
  %76 = load ptr, ptr %5, align 8
  %77 = getelementptr inbounds %struct.lxb_html_tokenizer, ptr %76, i32 0, i32 8
  %78 = load ptr, ptr %77, align 8
  %79 = getelementptr inbounds %struct.lxb_html_token_t, ptr %78, i32 0, i32 7
  %80 = load ptr, ptr %79, align 8
  %81 = getelementptr inbounds %struct.lxb_html_token_attr, ptr %80, i32 0, i32 4
  store ptr %75, ptr %81, align 8
  %82 = load ptr, ptr %5, align 8
  %83 = getelementptr inbounds %struct.lxb_html_tokenizer, ptr %82, i32 0, i32 0
  store ptr @lxb_html_tokenizer_state_doctype_after_public_keyword, ptr %83, align 8
  %84 = load ptr, ptr %8, align 8
  %85 = getelementptr inbounds i8, ptr %84, i64 1
  store ptr %85, ptr %4, align 8
  br label %91

86:                                               ; preds = %42
  %87 = load ptr, ptr %8, align 8
  %88 = load ptr, ptr %5, align 8
  %89 = getelementptr inbounds %struct.lxb_html_tokenizer, ptr %88, i32 0, i32 13
  store ptr %87, ptr %89, align 8
  %90 = load ptr, ptr %7, align 8
  store ptr %90, ptr %4, align 8
  br label %91

91:                                               ; preds = %86, %74, %70, %22
  %92 = load ptr, ptr %4, align 8
  ret ptr %92
}