; Function Attrs: nounwind uwtable
define internal ptr @lxb_html_tokenizer_state_doctype_after_name_public(ptr nocapture noundef %0, ptr noundef %1, ptr noundef %2) #0 {
  %4 = getelementptr inbounds i8, ptr %0, i64 104
  %5 = load ptr, ptr %4, align 8
  %6 = ptrtoint ptr %2 to i64
  %7 = ptrtoint ptr %1 to i64
  %8 = sub i64 %6, %7
  %9 = tail call ptr @lexbor_str_data_ncasecmp_first(ptr noundef %5, ptr noundef %1, i64 noundef %8) #4
  %10 = icmp eq ptr %9, null
  br i1 %10, label %11, label %21

11:                                               ; preds = %3
  %12 = getelementptr inbounds i8, ptr %0, i64 64
  %13 = load ptr, ptr %12, align 8
  %14 = getelementptr inbounds i8, ptr %13, i64 56
  %15 = load ptr, ptr %14, align 8
  %16 = getelementptr inbounds i8, ptr %0, i64 80
  %17 = load ptr, ptr %16, align 8
  tail call void @lxb_html_token_attr_delete(ptr noundef %13, ptr noundef %15, ptr noundef %17) #4
  %18 = getelementptr inbounds i8, ptr %0, i64 88
  %19 = load ptr, ptr %18, align 8
  %20 = tail call ptr @lxb_html_tokenizer_error_add(ptr noundef %19, ptr noundef %1, i32 noundef 19) #4
  store ptr @lxb_html_tokenizer_state_doctype_bogus, ptr %0, align 8
  br label %48

21:                                               ; preds = %3
  %22 = load i8, ptr %9, align 1
  %23 = icmp eq i8 %22, 0
  br i1 %23, label %24, label %47

24:                                               ; preds = %21
  %25 = load ptr, ptr %4, align 8
  %26 = ptrtoint ptr %9 to i64
  %27 = ptrtoint ptr %25 to i64
  %28 = sub i64 %26, %27
  %29 = getelementptr inbounds i8, ptr %1, i64 %28
  %30 = getelementptr inbounds i8, ptr %0, i64 64
  %31 = load ptr, ptr %30, align 8
  %32 = getelementptr inbounds i8, ptr %31, i64 56
  %33 = load ptr, ptr %32, align 8
  %34 = getelementptr inbounds i8, ptr %33, i64 8
  store ptr %29, ptr %34, align 8
  %35 = getelementptr inbounds i8, ptr %0, i64 40
  %36 = load ptr, ptr %35, align 8
  %37 = tail call ptr @lxb_dom_attr_data_by_id(ptr noundef %36, i64 noundef 23) #4
  %38 = icmp eq ptr %37, null
  br i1 %38, label %39, label %41

39:                                               ; preds = %24
  %40 = getelementptr inbounds i8, ptr %0, i64 232
  store i32 1, ptr %40, align 8
  br label %48

41:                                               ; preds = %24
  %42 = load ptr, ptr %30, align 8
  %43 = getelementptr inbounds i8, ptr %42, i64 56
  %44 = load ptr, ptr %43, align 8
  %45 = getelementptr inbounds i8, ptr %44, i64 32
  store ptr %37, ptr %45, align 8
  store ptr @lxb_html_tokenizer_state_doctype_after_public_keyword, ptr %0, align 8
  %46 = getelementptr inbounds i8, ptr %29, i64 1
  br label %48

47:                                               ; preds = %21
  store ptr %9, ptr %4, align 8
  br label %48

48:                                               ; preds = %47, %41, %39, %11
  %.0 = phi ptr [ %1, %11 ], [ %2, %39 ], [ %46, %41 ], [ %2, %47 ]
  ret ptr %.0
}